target datalayout = "e-m:e-p270:32:32-p271:32:32-p272:64:64-i64:64-i128:128-f80:128-n8:16:32:64-S128"
target triple = "x86_64-pc-linux-gnu"

%"struct.gmx::EnumerationArray" = type { [2 x ptr] }

$_ZNK3gmx16EnumerationArrayI18GpuApiCallBehaviorPKcLS1_2EEixES1_ = comdat any

@_ZZ17enumValueToString18GpuApiCallBehaviorE25s_gpuApiCallBehaviorNames = internal constant %"struct.gmx::EnumerationArray" { [2 x ptr] [ptr @.str, ptr @.str.1] }, align 8
@.str = private unnamed_addr constant [12 x i8] c"Synchronous\00", align 1
@.str.1 = private unnamed_addr constant [13 x i8] c"Asynchronous\00", align 1

; Function Attrs: mustprogress uwtable
define noundef ptr @_Z17enumValueToString18GpuApiCallBehavior(i32 noundef %0) #0 {
  %2 = alloca i32, align 4
  store i32 %0, ptr %2, align 4
  %3 = load i32, ptr %2, align 4
  %4 = call noundef nonnull align 8 dereferenceable(8) ptr @_ZNK3gmx16EnumerationArrayI18GpuApiCallBehaviorPKcLS1_2EEixES1_(ptr noundef nonnull align 8 dereferenceable(16) @_ZZ17enumValueToString18GpuApiCallBehaviorE25s_gpuApiCallBehaviorNames, i32 noundef %3)
  %5 = load ptr, ptr %4, align 8
  ret ptr %5
}

; Function Attrs: mustprogress nounwind uwtable
define linkonce_odr noundef nonnull align 8 dereferenceable(8) ptr @_ZNK3gmx16EnumerationArrayI18GpuApiCallBehaviorPKcLS1_2EEixES1_(ptr noundef nonnull align 8 dereferenceable(16) %0, i32 noundef %1) #1 comdat align 2 {
  %3 = alloca ptr, align 8
  %4 = alloca i32, align 4
  store ptr %0, ptr %3, align 8
  store i32 %1, ptr %4, align 4
  %5 = load ptr, ptr %3, align 8
  %6 = getelementptr inbounds %"struct.gmx::EnumerationArray", ptr %5, i32 0, i32 0
  %7 = load i32, ptr %4, align 4
  %8 = sext i32 %7 to i64
  %9 = getelementptr inbounds [2 x ptr], ptr %6, i64 0, i64 %8
  ret ptr %9
}

; Function Attrs: mustprogress nounwind uwtable
define noundef zeroext i1 @_Z21decideGpuTimingsUsagev() #1 {
  ret i1 false
}


!llvm.module.flags = !{!0, !1, !2, !3, !4}

!0 = !{i32 1, !"wchar_size", i32 4}
!1 = !{i32 7, !"openmp", i32 51}
!2 = !{i32 8, !"PIC Level", i32 2}
!3 = !{i32 7, !"uwtable", i32 2}
!4 = !{i32 7, !"frame-pointer", i32 2}
